
gsm_alarm.elf:     file format elf32-avr

Sections:
Idx Name          Size      VMA       LMA       File off  Algn
  0 .text         000001f8  00000000  00000000  00000094  2**1
                  CONTENTS, ALLOC, LOAD, READONLY, CODE
  1 .data         0000005c  00800060  000001f8  0000028c  2**0
                  CONTENTS, ALLOC, LOAD, DATA
  2 .bss          00000002  008000bc  008000bc  000002e8  2**0
                  ALLOC

Disassembly of section .text:

00000000 <__vectors>:
   0:	12 c0       	rjmp	.+36     	; 0x26 <__ctors_end>
   2:	2c c0       	rjmp	.+88     	; 0x5c <__bad_interrupt>
   4:	2b c0       	rjmp	.+86     	; 0x5c <__bad_interrupt>
   6:	2a c0       	rjmp	.+84     	; 0x5c <__bad_interrupt>
   8:	29 c0       	rjmp	.+82     	; 0x5c <__bad_interrupt>
   a:	28 c0       	rjmp	.+80     	; 0x5c <__bad_interrupt>
   c:	27 c0       	rjmp	.+78     	; 0x5c <__bad_interrupt>
   e:	26 c0       	rjmp	.+76     	; 0x5c <__bad_interrupt>
  10:	63 c0       	rjmp	.+198    	; 0xd8 <__vector_8>
  12:	cd c0       	rjmp	.+410    	; 0x1ae <__vector_9>
  14:	23 c0       	rjmp	.+70     	; 0x5c <__bad_interrupt>
  16:	22 c0       	rjmp	.+68     	; 0x5c <__bad_interrupt>
  18:	21 c0       	rjmp	.+66     	; 0x5c <__bad_interrupt>
  1a:	20 c0       	rjmp	.+64     	; 0x5c <__bad_interrupt>
  1c:	1f c0       	rjmp	.+62     	; 0x5c <__bad_interrupt>
  1e:	1e c0       	rjmp	.+60     	; 0x5c <__bad_interrupt>
  20:	1d c0       	rjmp	.+58     	; 0x5c <__bad_interrupt>
  22:	1c c0       	rjmp	.+56     	; 0x5c <__bad_interrupt>
  24:	1b c0       	rjmp	.+54     	; 0x5c <__bad_interrupt>

00000026 <__ctors_end>:
  26:	11 24       	eor	r1, r1
  28:	1f be       	out	0x3f, r1	; 63
  2a:	cf e5       	ldi	r28, 0x5F	; 95
  2c:	d4 e0       	ldi	r29, 0x04	; 4
  2e:	de bf       	out	0x3e, r29	; 62
  30:	cd bf       	out	0x3d, r28	; 61

00000032 <__do_copy_data>:
  32:	10 e0       	ldi	r17, 0x00	; 0
  34:	a0 e6       	ldi	r26, 0x60	; 96
  36:	b0 e0       	ldi	r27, 0x00	; 0
  38:	e8 ef       	ldi	r30, 0xF8	; 248
  3a:	f1 e0       	ldi	r31, 0x01	; 1
  3c:	02 c0       	rjmp	.+4      	; 0x42 <.do_copy_data_start>

0000003e <.do_copy_data_loop>:
  3e:	05 90       	lpm	r0, Z+
  40:	0d 92       	st	X+, r0

00000042 <.do_copy_data_start>:
  42:	ac 3b       	cpi	r26, 0xBC	; 188
  44:	b1 07       	cpc	r27, r17
  46:	d9 f7       	brne	.-10     	; 0x3e <.do_copy_data_loop>

00000048 <__do_clear_bss>:
  48:	10 e0       	ldi	r17, 0x00	; 0
  4a:	ac eb       	ldi	r26, 0xBC	; 188
  4c:	b0 e0       	ldi	r27, 0x00	; 0
  4e:	01 c0       	rjmp	.+2      	; 0x52 <.do_clear_bss_start>

00000050 <.do_clear_bss_loop>:
  50:	1d 92       	st	X+, r1

00000052 <.do_clear_bss_start>:
  52:	ae 3b       	cpi	r26, 0xBE	; 190
  54:	b1 07       	cpc	r27, r17
  56:	e1 f7       	brne	.-8      	; 0x50 <.do_clear_bss_loop>
  58:	0c d0       	rcall	.+24     	; 0x72 <main>
  5a:	cc c0       	rjmp	.+408    	; 0x1f4 <_exit>

0000005c <__bad_interrupt>:
  5c:	d1 cf       	rjmp	.-94     	; 0x0 <__vectors>

0000005e <send_Uart_str>:
  5e:	fc 01       	movw	r30, r24
  60:	04 c0       	rjmp	.+8      	; 0x6a <send_Uart_str+0xc>
  62:	5d 9b       	sbis	0x0b, 5	; 11
  64:	fe cf       	rjmp	.-4      	; 0x62 <send_Uart_str+0x4>
  66:	31 96       	adiw	r30, 0x01	; 1
  68:	8c b9       	out	0x0c, r24	; 12
  6a:	80 81       	ld	r24, Z
  6c:	88 23       	and	r24, r24
  6e:	c9 f7       	brne	.-14     	; 0x62 <send_Uart_str+0x4>
  70:	08 95       	ret

00000072 <main>:
  72:	81 e1       	ldi	r24, 0x11	; 17
  74:	84 bb       	out	0x14, r24	; 20
  76:	8e e2       	ldi	r24, 0x2E	; 46
  78:	85 bb       	out	0x15, r24	; 21
  7a:	80 e8       	ldi	r24, 0x80	; 128
  7c:	81 bb       	out	0x11, r24	; 17
  7e:	12 ba       	out	0x12, r1	; 18
  80:	10 bc       	out	0x20, r1	; 32
  82:	83 e3       	ldi	r24, 0x33	; 51
  84:	89 b9       	out	0x09, r24	; 9
  86:	1b b8       	out	0x0b, r1	; 11
  88:	88 e1       	ldi	r24, 0x18	; 24
  8a:	8a b9       	out	0x0a, r24	; 10
  8c:	86 e8       	ldi	r24, 0x86	; 134
  8e:	80 bd       	out	0x20, r24	; 32
  90:	80 e1       	ldi	r24, 0x10	; 16
  92:	97 e2       	ldi	r25, 0x27	; 39
  94:	28 ec       	ldi	r18, 0xC8	; 200
  96:	30 e0       	ldi	r19, 0x00	; 0
  98:	f9 01       	movw	r30, r18
  9a:	31 97       	sbiw	r30, 0x01	; 1
  9c:	f1 f7       	brne	.-4      	; 0x9a <main+0x28>
  9e:	01 97       	sbiw	r24, 0x01	; 1
  a0:	d9 f7       	brne	.-10     	; 0x98 <main+0x26>
  a2:	80 e6       	ldi	r24, 0x60	; 96
  a4:	90 e0       	ldi	r25, 0x00	; 0
  a6:	db df       	rcall	.-74     	; 0x5e <send_Uart_str>
  a8:	8e e6       	ldi	r24, 0x6E	; 110
  aa:	90 e0       	ldi	r25, 0x00	; 0
  ac:	d8 df       	rcall	.-80     	; 0x5e <send_Uart_str>
  ae:	84 e8       	ldi	r24, 0x84	; 132
  b0:	90 e0       	ldi	r25, 0x00	; 0
  b2:	d5 df       	rcall	.-86     	; 0x5e <send_Uart_str>
  b4:	84 e0       	ldi	r24, 0x04	; 4
  b6:	8e bd       	out	0x2e, r24	; 46
  b8:	89 b7       	in	r24, 0x39	; 57
  ba:	84 60       	ori	r24, 0x04	; 4
  bc:	89 bf       	out	0x39, r24	; 57
  be:	80 e2       	ldi	r24, 0x20	; 32
  c0:	96 e8       	ldi	r25, 0x86	; 134
  c2:	9d bd       	out	0x2d, r25	; 45
  c4:	8c bd       	out	0x2c, r24	; 44
  c6:	85 e0       	ldi	r24, 0x05	; 5
  c8:	83 bf       	out	0x33, r24	; 51
  ca:	89 b7       	in	r24, 0x39	; 57
  cc:	81 60       	ori	r24, 0x01	; 1
  ce:	89 bf       	out	0x39, r24	; 57
  d0:	8c e3       	ldi	r24, 0x3C	; 60
  d2:	82 bf       	out	0x32, r24	; 50
  d4:	78 94       	sei
  d6:	ff cf       	rjmp	.-2      	; 0xd6 <main+0x64>

000000d8 <__vector_8>:
  d8:	1f 92       	push	r1
  da:	0f 92       	push	r0
  dc:	0f b6       	in	r0, 0x3f	; 63
  de:	0f 92       	push	r0
  e0:	11 24       	eor	r1, r1
  e2:	2f 93       	push	r18
  e4:	3f 93       	push	r19
  e6:	4f 93       	push	r20
  e8:	5f 93       	push	r21
  ea:	6f 93       	push	r22
  ec:	7f 93       	push	r23
  ee:	8f 93       	push	r24
  f0:	9f 93       	push	r25
  f2:	af 93       	push	r26
  f4:	bf 93       	push	r27
  f6:	ef 93       	push	r30
  f8:	ff 93       	push	r31
  fa:	80 e2       	ldi	r24, 0x20	; 32
  fc:	96 e8       	ldi	r25, 0x86	; 134
  fe:	9d bd       	out	0x2d, r25	; 45
 100:	8c bd       	out	0x2c, r24	; 44
 102:	80 91 bc 00 	lds	r24, 0x00BC
 106:	82 ff       	sbrs	r24, 2
 108:	0d c0       	rjmp	.+26     	; 0x124 <__vector_8+0x4c>
 10a:	80 91 bc 00 	lds	r24, 0x00BC
 10e:	8b 7f       	andi	r24, 0xFB	; 251
 110:	80 93 bc 00 	sts	0x00BC, r24
 114:	80 91 bd 00 	lds	r24, 0x00BD
 118:	88 60       	ori	r24, 0x08	; 8
 11a:	80 93 bd 00 	sts	0x00BD, r24
 11e:	89 e9       	ldi	r24, 0x99	; 153
 120:	90 e0       	ldi	r25, 0x00	; 0
 122:	9d df       	rcall	.-198    	; 0x5e <send_Uart_str>
 124:	80 91 bc 00 	lds	r24, 0x00BC
 128:	80 ff       	sbrs	r24, 0
 12a:	0d c0       	rjmp	.+26     	; 0x146 <__vector_8+0x6e>
 12c:	80 91 bc 00 	lds	r24, 0x00BC
 130:	8e 7f       	andi	r24, 0xFE	; 254
 132:	80 93 bc 00 	sts	0x00BC, r24
 136:	80 91 bd 00 	lds	r24, 0x00BD
 13a:	84 60       	ori	r24, 0x04	; 4
 13c:	80 93 bd 00 	sts	0x00BD, r24
 140:	82 ea       	ldi	r24, 0xA2	; 162
 142:	90 e0       	ldi	r25, 0x00	; 0
 144:	8c df       	rcall	.-232    	; 0x5e <send_Uart_str>
 146:	80 91 bc 00 	lds	r24, 0x00BC
 14a:	81 ff       	sbrs	r24, 1
 14c:	0d c0       	rjmp	.+26     	; 0x168 <__vector_8+0x90>
 14e:	80 91 bc 00 	lds	r24, 0x00BC
 152:	8d 7f       	andi	r24, 0xFD	; 253
 154:	80 93 bc 00 	sts	0x00BC, r24
 158:	80 91 bd 00 	lds	r24, 0x00BD
 15c:	82 60       	ori	r24, 0x02	; 2
 15e:	80 93 bd 00 	sts	0x00BD, r24
 162:	8b ea       	ldi	r24, 0xAB	; 171
 164:	90 e0       	ldi	r25, 0x00	; 0
 166:	7b df       	rcall	.-266    	; 0x5e <send_Uart_str>
 168:	80 91 bd 00 	lds	r24, 0x00BD
 16c:	83 ff       	sbrs	r24, 3
 16e:	06 c0       	rjmp	.+12     	; 0x17c <__vector_8+0xa4>
 170:	83 eb       	ldi	r24, 0xB3	; 179
 172:	90 e0       	ldi	r25, 0x00	; 0
 174:	74 df       	rcall	.-280    	; 0x5e <send_Uart_str>
 176:	10 92 bd 00 	sts	0x00BD, r1
 17a:	a8 98       	cbi	0x15, 0	; 21
 17c:	80 91 bd 00 	lds	r24, 0x00BD
 180:	82 fd       	sbrc	r24, 2
 182:	a8 9a       	sbi	0x15, 0	; 21
 184:	80 91 bd 00 	lds	r24, 0x00BD
 188:	81 fd       	sbrc	r24, 1
 18a:	a8 9a       	sbi	0x15, 0	; 21
 18c:	ff 91       	pop	r31
 18e:	ef 91       	pop	r30
 190:	bf 91       	pop	r27
 192:	af 91       	pop	r26
 194:	9f 91       	pop	r25
 196:	8f 91       	pop	r24
 198:	7f 91       	pop	r23
 19a:	6f 91       	pop	r22
 19c:	5f 91       	pop	r21
 19e:	4f 91       	pop	r20
 1a0:	3f 91       	pop	r19
 1a2:	2f 91       	pop	r18
 1a4:	0f 90       	pop	r0
 1a6:	0f be       	out	0x3f, r0	; 63
 1a8:	0f 90       	pop	r0
 1aa:	1f 90       	pop	r1
 1ac:	18 95       	reti

000001ae <__vector_9>:
 1ae:	1f 92       	push	r1
 1b0:	0f 92       	push	r0
 1b2:	0f b6       	in	r0, 0x3f	; 63
 1b4:	0f 92       	push	r0
 1b6:	11 24       	eor	r1, r1
 1b8:	8f 93       	push	r24
 1ba:	8c e3       	ldi	r24, 0x3C	; 60
 1bc:	82 bf       	out	0x32, r24	; 50
 1be:	9d 9b       	sbis	0x13, 5	; 19
 1c0:	05 c0       	rjmp	.+10     	; 0x1cc <__vector_9+0x1e>
 1c2:	80 91 bc 00 	lds	r24, 0x00BC
 1c6:	84 60       	ori	r24, 0x04	; 4
 1c8:	80 93 bc 00 	sts	0x00BC, r24
 1cc:	9b 99       	sbic	0x13, 3	; 19
 1ce:	05 c0       	rjmp	.+10     	; 0x1da <__vector_9+0x2c>
 1d0:	80 91 bc 00 	lds	r24, 0x00BC
 1d4:	81 60       	ori	r24, 0x01	; 1
 1d6:	80 93 bc 00 	sts	0x00BC, r24
 1da:	99 99       	sbic	0x13, 1	; 19
 1dc:	05 c0       	rjmp	.+10     	; 0x1e8 <__vector_9+0x3a>
 1de:	80 91 bc 00 	lds	r24, 0x00BC
 1e2:	82 60       	ori	r24, 0x02	; 2
 1e4:	80 93 bc 00 	sts	0x00BC, r24
 1e8:	8f 91       	pop	r24
 1ea:	0f 90       	pop	r0
 1ec:	0f be       	out	0x3f, r0	; 63
 1ee:	0f 90       	pop	r0
 1f0:	1f 90       	pop	r1
 1f2:	18 95       	reti

000001f4 <_exit>:
 1f4:	f8 94       	cli

000001f6 <__stop_program>:
 1f6:	ff cf       	rjmp	.-2      	; 0x1f6 <__stop_program>
