
gsm_alarm.elf:     file format elf32-avr

Sections:
Idx Name          Size      VMA       LMA       File off  Algn
  0 .text         000002a4  00000000  00000000  00000094  2**1
                  CONTENTS, ALLOC, LOAD, READONLY, CODE
  1 .data         00000024  00800060  000002a4  00000338  2**0
                  CONTENTS, ALLOC, LOAD, DATA
  2 .bss          00000006  00800084  00800084  0000035c  2**0
                  ALLOC

Disassembly of section .text:

00000000 <__vectors>:
   0:	12 c0       	rjmp	.+36     	; 0x26 <__ctors_end>
   2:	2c c0       	rjmp	.+88     	; 0x5c <__bad_interrupt>
   4:	2b c0       	rjmp	.+86     	; 0x5c <__bad_interrupt>
   6:	2a c0       	rjmp	.+84     	; 0x5c <__bad_interrupt>
   8:	29 c0       	rjmp	.+82     	; 0x5c <__bad_interrupt>
   a:	28 c0       	rjmp	.+80     	; 0x5c <__bad_interrupt>
   c:	27 c0       	rjmp	.+78     	; 0x5c <__bad_interrupt>
   e:	26 c0       	rjmp	.+76     	; 0x5c <__bad_interrupt>
  10:	b9 c0       	rjmp	.+370    	; 0x184 <__vector_8>
  12:	2a c1       	rjmp	.+596    	; 0x268 <__vector_9>
  14:	23 c0       	rjmp	.+70     	; 0x5c <__bad_interrupt>
  16:	22 c0       	rjmp	.+68     	; 0x5c <__bad_interrupt>
  18:	21 c0       	rjmp	.+66     	; 0x5c <__bad_interrupt>
  1a:	20 c0       	rjmp	.+64     	; 0x5c <__bad_interrupt>
  1c:	1f c0       	rjmp	.+62     	; 0x5c <__bad_interrupt>
  1e:	1e c0       	rjmp	.+60     	; 0x5c <__bad_interrupt>
  20:	1d c0       	rjmp	.+58     	; 0x5c <__bad_interrupt>
  22:	1c c0       	rjmp	.+56     	; 0x5c <__bad_interrupt>
  24:	1b c0       	rjmp	.+54     	; 0x5c <__bad_interrupt>

00000026 <__ctors_end>:
  26:	11 24       	eor	r1, r1
  28:	1f be       	out	0x3f, r1	; 63
  2a:	cf e5       	ldi	r28, 0x5F	; 95
  2c:	d4 e0       	ldi	r29, 0x04	; 4
  2e:	de bf       	out	0x3e, r29	; 62
  30:	cd bf       	out	0x3d, r28	; 61

00000032 <__do_copy_data>:
  32:	10 e0       	ldi	r17, 0x00	; 0
  34:	a0 e6       	ldi	r26, 0x60	; 96
  36:	b0 e0       	ldi	r27, 0x00	; 0
  38:	e4 ea       	ldi	r30, 0xA4	; 164
  3a:	f2 e0       	ldi	r31, 0x02	; 2
  3c:	02 c0       	rjmp	.+4      	; 0x42 <.do_copy_data_start>

0000003e <.do_copy_data_loop>:
  3e:	05 90       	lpm	r0, Z+
  40:	0d 92       	st	X+, r0

00000042 <.do_copy_data_start>:
  42:	a4 38       	cpi	r26, 0x84	; 132
  44:	b1 07       	cpc	r27, r17
  46:	d9 f7       	brne	.-10     	; 0x3e <.do_copy_data_loop>

00000048 <__do_clear_bss>:
  48:	10 e0       	ldi	r17, 0x00	; 0
  4a:	a4 e8       	ldi	r26, 0x84	; 132
  4c:	b0 e0       	ldi	r27, 0x00	; 0
  4e:	01 c0       	rjmp	.+2      	; 0x52 <.do_clear_bss_start>

00000050 <.do_clear_bss_loop>:
  50:	1d 92       	st	X+, r1

00000052 <.do_clear_bss_start>:
  52:	aa 38       	cpi	r26, 0x8A	; 138
  54:	b1 07       	cpc	r27, r17
  56:	e1 f7       	brne	.-8      	; 0x50 <.do_clear_bss_loop>
  58:	0c d0       	rcall	.+24     	; 0x72 <main>
  5a:	22 c1       	rjmp	.+580    	; 0x2a0 <_exit>

0000005c <__bad_interrupt>:
  5c:	d1 cf       	rjmp	.-94     	; 0x0 <__vectors>

0000005e <send_Uart_str>:
  5e:	fc 01       	movw	r30, r24
  60:	04 c0       	rjmp	.+8      	; 0x6a <send_Uart_str+0xc>
  62:	5d 9b       	sbis	0x0b, 5	; 11
  64:	fe cf       	rjmp	.-4      	; 0x62 <send_Uart_str+0x4>
  66:	31 96       	adiw	r30, 0x01	; 1
  68:	8c b9       	out	0x0c, r24	; 12
  6a:	80 81       	ld	r24, Z
  6c:	88 23       	and	r24, r24
  6e:	c9 f7       	brne	.-14     	; 0x62 <send_Uart_str+0x4>
  70:	08 95       	ret

00000072 <main>:
  72:	8f 92       	push	r8
  74:	9f 92       	push	r9
  76:	af 92       	push	r10
  78:	bf 92       	push	r11
  7a:	cf 92       	push	r12
  7c:	df 92       	push	r13
  7e:	ef 92       	push	r14
  80:	ff 92       	push	r15
  82:	0f 93       	push	r16
  84:	1f 93       	push	r17
  86:	cf 93       	push	r28
  88:	df 93       	push	r29
  8a:	10 bc       	out	0x20, r1	; 32
  8c:	83 e3       	ldi	r24, 0x33	; 51
  8e:	89 b9       	out	0x09, r24	; 9
  90:	1b b8       	out	0x0b, r1	; 11
  92:	88 e1       	ldi	r24, 0x18	; 24
  94:	8a b9       	out	0x0a, r24	; 10
  96:	86 e8       	ldi	r24, 0x86	; 134
  98:	80 bd       	out	0x20, r24	; 32
  9a:	80 e1       	ldi	r24, 0x10	; 16
  9c:	97 e2       	ldi	r25, 0x27	; 39
  9e:	28 ec       	ldi	r18, 0xC8	; 200
  a0:	30 e0       	ldi	r19, 0x00	; 0
  a2:	f9 01       	movw	r30, r18
  a4:	31 97       	sbiw	r30, 0x01	; 1
  a6:	f1 f7       	brne	.-4      	; 0xa4 <main+0x32>
  a8:	01 97       	sbiw	r24, 0x01	; 1
  aa:	d9 f7       	brne	.-10     	; 0xa2 <main+0x30>
  ac:	80 e6       	ldi	r24, 0x60	; 96
  ae:	90 e0       	ldi	r25, 0x00	; 0
  b0:	d6 df       	rcall	.-84     	; 0x5e <send_Uart_str>
  b2:	20 e0       	ldi	r18, 0x00	; 0
  b4:	30 e0       	ldi	r19, 0x00	; 0
  b6:	48 ec       	ldi	r20, 0xC8	; 200
  b8:	50 e0       	ldi	r21, 0x00	; 0
  ba:	0a c0       	rjmp	.+20     	; 0xd0 <main+0x5e>
  bc:	fa 01       	movw	r30, r20
  be:	31 97       	sbiw	r30, 0x01	; 1
  c0:	f1 f7       	brne	.-4      	; 0xbe <main+0x4c>
  c2:	01 97       	sbiw	r24, 0x01	; 1
  c4:	d9 f7       	brne	.-10     	; 0xbc <main+0x4a>
  c6:	2e 5f       	subi	r18, 0xFE	; 254
  c8:	3f 4f       	sbci	r19, 0xFF	; 255
  ca:	26 39       	cpi	r18, 0x96	; 150
  cc:	31 05       	cpc	r19, r1
  ce:	19 f0       	breq	.+6      	; 0xd6 <main+0x64>
  d0:	80 e1       	ldi	r24, 0x10	; 16
  d2:	97 e2       	ldi	r25, 0x27	; 39
  d4:	f3 cf       	rjmp	.-26     	; 0xbc <main+0x4a>
  d6:	61 e0       	ldi	r22, 0x01	; 1
  d8:	e6 2e       	mov	r14, r22
  da:	f1 2c       	mov	r15, r1
  dc:	51 e1       	ldi	r21, 0x11	; 17
  de:	85 2e       	mov	r8, r21
  e0:	4e e2       	ldi	r20, 0x2E	; 46
  e2:	94 2e       	mov	r9, r20
  e4:	30 e8       	ldi	r19, 0x80	; 128
  e6:	a3 2e       	mov	r10, r19
  e8:	24 e0       	ldi	r18, 0x04	; 4
  ea:	b2 2e       	mov	r11, r18
  ec:	00 e2       	ldi	r16, 0x20	; 32
  ee:	16 e8       	ldi	r17, 0x86	; 134
  f0:	95 e0       	ldi	r25, 0x05	; 5
  f2:	c9 2e       	mov	r12, r25
  f4:	8c e3       	ldi	r24, 0x3C	; 60
  f6:	d8 2e       	mov	r13, r24
  f8:	c8 ec       	ldi	r28, 0xC8	; 200
  fa:	d0 e0       	ldi	r29, 0x00	; 0
  fc:	10 92 88 00 	sts	0x0088, r1
 100:	10 92 89 00 	sts	0x0089, r1
 104:	f0 92 85 00 	sts	0x0085, r15
 108:	e0 92 84 00 	sts	0x0084, r14
 10c:	10 92 87 00 	sts	0x0087, r1
 110:	10 92 86 00 	sts	0x0086, r1
 114:	f8 94       	cli
 116:	84 ba       	out	0x14, r8	; 20
 118:	95 ba       	out	0x15, r9	; 21
 11a:	a1 ba       	out	0x11, r10	; 17
 11c:	12 ba       	out	0x12, r1	; 18
 11e:	be bc       	out	0x2e, r11	; 46
 120:	89 b7       	in	r24, 0x39	; 57
 122:	84 60       	ori	r24, 0x04	; 4
 124:	89 bf       	out	0x39, r24	; 57
 126:	1d bd       	out	0x2d, r17	; 45
 128:	0c bd       	out	0x2c, r16	; 44
 12a:	c3 be       	out	0x33, r12	; 51
 12c:	89 b7       	in	r24, 0x39	; 57
 12e:	81 60       	ori	r24, 0x01	; 1
 130:	89 bf       	out	0x39, r24	; 57
 132:	d2 be       	out	0x32, r13	; 50
 134:	88 e6       	ldi	r24, 0x68	; 104
 136:	90 e0       	ldi	r25, 0x00	; 0
 138:	92 df       	rcall	.-220    	; 0x5e <send_Uart_str>
 13a:	78 94       	sei
 13c:	80 91 86 00 	lds	r24, 0x0086
 140:	90 91 87 00 	lds	r25, 0x0087
 144:	01 97       	sbiw	r24, 0x01	; 1
 146:	19 f4       	brne	.+6      	; 0x14e <main+0xdc>
 148:	80 e7       	ldi	r24, 0x70	; 112
 14a:	90 e0       	ldi	r25, 0x00	; 0
 14c:	88 df       	rcall	.-240    	; 0x5e <send_Uart_str>
 14e:	20 e0       	ldi	r18, 0x00	; 0
 150:	30 e0       	ldi	r19, 0x00	; 0
 152:	0a c0       	rjmp	.+20     	; 0x168 <main+0xf6>
 154:	fe 01       	movw	r30, r28
 156:	31 97       	sbiw	r30, 0x01	; 1
 158:	f1 f7       	brne	.-4      	; 0x156 <main+0xe4>
 15a:	01 97       	sbiw	r24, 0x01	; 1
 15c:	d9 f7       	brne	.-10     	; 0x154 <main+0xe2>
 15e:	2e 5f       	subi	r18, 0xFE	; 254
 160:	3f 4f       	sbci	r19, 0xFF	; 255
 162:	24 31       	cpi	r18, 0x14	; 20
 164:	31 05       	cpc	r19, r1
 166:	19 f0       	breq	.+6      	; 0x16e <main+0xfc>
 168:	80 e1       	ldi	r24, 0x10	; 16
 16a:	97 e2       	ldi	r25, 0x27	; 39
 16c:	f3 cf       	rjmp	.-26     	; 0x154 <main+0xe2>
 16e:	80 91 84 00 	lds	r24, 0x0084
 172:	90 91 85 00 	lds	r25, 0x0085
 176:	cd 97       	sbiw	r24, 0x3d	; 61
 178:	08 f3       	brcs	.-62     	; 0x13c <main+0xca>
 17a:	80 91 88 00 	lds	r24, 0x0088
 17e:	88 23       	and	r24, r24
 180:	e9 f6       	brne	.-70     	; 0x13c <main+0xca>
 182:	bc cf       	rjmp	.-136    	; 0xfc <main+0x8a>

00000184 <__vector_8>:
 184:	1f 92       	push	r1
 186:	0f 92       	push	r0
 188:	0f b6       	in	r0, 0x3f	; 63
 18a:	0f 92       	push	r0
 18c:	11 24       	eor	r1, r1
 18e:	2f 93       	push	r18
 190:	3f 93       	push	r19
 192:	8f 93       	push	r24
 194:	9f 93       	push	r25
 196:	80 e2       	ldi	r24, 0x20	; 32
 198:	96 e8       	ldi	r25, 0x86	; 134
 19a:	9d bd       	out	0x2d, r25	; 45
 19c:	8c bd       	out	0x2c, r24	; 44
 19e:	80 91 88 00 	lds	r24, 0x0088
 1a2:	80 ff       	sbrs	r24, 0
 1a4:	0a c0       	rjmp	.+20     	; 0x1ba <__vector_8+0x36>
 1a6:	80 91 88 00 	lds	r24, 0x0088
 1aa:	8e 7f       	andi	r24, 0xFE	; 254
 1ac:	80 93 88 00 	sts	0x0088, r24
 1b0:	80 91 89 00 	lds	r24, 0x0089
 1b4:	84 60       	ori	r24, 0x04	; 4
 1b6:	80 93 89 00 	sts	0x0089, r24
 1ba:	80 91 88 00 	lds	r24, 0x0088
 1be:	81 ff       	sbrs	r24, 1
 1c0:	0a c0       	rjmp	.+20     	; 0x1d6 <__vector_8+0x52>
 1c2:	80 91 88 00 	lds	r24, 0x0088
 1c6:	8d 7f       	andi	r24, 0xFD	; 253
 1c8:	80 93 88 00 	sts	0x0088, r24
 1cc:	80 91 89 00 	lds	r24, 0x0089
 1d0:	82 60       	ori	r24, 0x02	; 2
 1d2:	80 93 89 00 	sts	0x0089, r24
 1d6:	80 91 89 00 	lds	r24, 0x0089
 1da:	82 ff       	sbrs	r24, 2
 1dc:	1c c0       	rjmp	.+56     	; 0x216 <__vector_8+0x92>
 1de:	a8 9a       	sbi	0x15, 0	; 21
 1e0:	ac 9a       	sbi	0x15, 4	; 21
 1e2:	21 e0       	ldi	r18, 0x01	; 1
 1e4:	30 e0       	ldi	r19, 0x00	; 0
 1e6:	30 93 87 00 	sts	0x0087, r19
 1ea:	20 93 86 00 	sts	0x0086, r18
 1ee:	80 91 84 00 	lds	r24, 0x0084
 1f2:	90 91 85 00 	lds	r25, 0x0085
 1f6:	85 36       	cpi	r24, 0x65	; 101
 1f8:	91 05       	cpc	r25, r1
 1fa:	21 f4       	brne	.+8      	; 0x204 <__vector_8+0x80>
 1fc:	30 93 85 00 	sts	0x0085, r19
 200:	20 93 84 00 	sts	0x0084, r18
 204:	80 91 84 00 	lds	r24, 0x0084
 208:	90 91 85 00 	lds	r25, 0x0085
 20c:	01 96       	adiw	r24, 0x01	; 1
 20e:	90 93 85 00 	sts	0x0085, r25
 212:	80 93 84 00 	sts	0x0084, r24
 216:	80 91 89 00 	lds	r24, 0x0089
 21a:	81 ff       	sbrs	r24, 1
 21c:	1c c0       	rjmp	.+56     	; 0x256 <__vector_8+0xd2>
 21e:	a8 9a       	sbi	0x15, 0	; 21
 220:	ac 9a       	sbi	0x15, 4	; 21
 222:	21 e0       	ldi	r18, 0x01	; 1
 224:	30 e0       	ldi	r19, 0x00	; 0
 226:	30 93 87 00 	sts	0x0087, r19
 22a:	20 93 86 00 	sts	0x0086, r18
 22e:	80 91 84 00 	lds	r24, 0x0084
 232:	90 91 85 00 	lds	r25, 0x0085
 236:	85 36       	cpi	r24, 0x65	; 101
 238:	91 05       	cpc	r25, r1
 23a:	21 f4       	brne	.+8      	; 0x244 <__vector_8+0xc0>
 23c:	30 93 85 00 	sts	0x0085, r19
 240:	20 93 84 00 	sts	0x0084, r18
 244:	80 91 84 00 	lds	r24, 0x0084
 248:	90 91 85 00 	lds	r25, 0x0085
 24c:	01 96       	adiw	r24, 0x01	; 1
 24e:	90 93 85 00 	sts	0x0085, r25
 252:	80 93 84 00 	sts	0x0084, r24
 256:	9f 91       	pop	r25
 258:	8f 91       	pop	r24
 25a:	3f 91       	pop	r19
 25c:	2f 91       	pop	r18
 25e:	0f 90       	pop	r0
 260:	0f be       	out	0x3f, r0	; 63
 262:	0f 90       	pop	r0
 264:	1f 90       	pop	r1
 266:	18 95       	reti

00000268 <__vector_9>:
 268:	1f 92       	push	r1
 26a:	0f 92       	push	r0
 26c:	0f b6       	in	r0, 0x3f	; 63
 26e:	0f 92       	push	r0
 270:	11 24       	eor	r1, r1
 272:	8f 93       	push	r24
 274:	8c e3       	ldi	r24, 0x3C	; 60
 276:	82 bf       	out	0x32, r24	; 50
 278:	9b 99       	sbic	0x13, 3	; 19
 27a:	05 c0       	rjmp	.+10     	; 0x286 <__vector_9+0x1e>
 27c:	80 91 88 00 	lds	r24, 0x0088
 280:	81 60       	ori	r24, 0x01	; 1
 282:	80 93 88 00 	sts	0x0088, r24
 286:	99 99       	sbic	0x13, 1	; 19
 288:	05 c0       	rjmp	.+10     	; 0x294 <__vector_9+0x2c>
 28a:	80 91 88 00 	lds	r24, 0x0088
 28e:	82 60       	ori	r24, 0x02	; 2
 290:	80 93 88 00 	sts	0x0088, r24
 294:	8f 91       	pop	r24
 296:	0f 90       	pop	r0
 298:	0f be       	out	0x3f, r0	; 63
 29a:	0f 90       	pop	r0
 29c:	1f 90       	pop	r1
 29e:	18 95       	reti

000002a0 <_exit>:
 2a0:	f8 94       	cli

000002a2 <__stop_program>:
 2a2:	ff cf       	rjmp	.-2      	; 0x2a2 <__stop_program>
